ARM GAS  /var/folders/mn/k5wp23016n9dfxcgh9w5nftw0000gn/T//cc5jcjZ1.s 			page 1


   1              		.cpu cortex-m4
   2              		.arch armv7e-m
   3              		.fpu fpv4-sp-d16
   4              		.eabi_attribute 27, 1
   5              		.eabi_attribute 28, 1
   6              		.eabi_attribute 20, 1
   7              		.eabi_attribute 21, 1
   8              		.eabi_attribute 23, 3
   9              		.eabi_attribute 24, 1
  10              		.eabi_attribute 25, 1
  11              		.eabi_attribute 26, 1
  12              		.eabi_attribute 30, 1
  13              		.eabi_attribute 34, 1
  14              		.eabi_attribute 18, 4
  15              		.file	"streambuf.c"
  16              		.text
  17              	.Ltext0:
  18              		.cfi_sections	.debug_frame
  19              		.file 1 "Core/Src/common/streambuf.c"
  20              		.section	.text.sbufInit,"ax",%progbits
  21              		.align	1
  22              		.global	sbufInit
  23              		.syntax unified
  24              		.thumb
  25              		.thumb_func
  27              	sbufInit:
  28              	.LVL0:
  29              	.LFB0:
   1:Core/Src/common/streambuf.c **** /*
   2:Core/Src/common/streambuf.c ****  * This file is part of Cleanflight and Betaflight.
   3:Core/Src/common/streambuf.c ****  *
   4:Core/Src/common/streambuf.c ****  * Cleanflight and Betaflight are free software. You can redistribute
   5:Core/Src/common/streambuf.c ****  * this software and/or modify this software under the terms of the
   6:Core/Src/common/streambuf.c ****  * GNU General Public License as published by the Free Software
   7:Core/Src/common/streambuf.c ****  * Foundation, either version 3 of the License, or (at your option)
   8:Core/Src/common/streambuf.c ****  * any later version.
   9:Core/Src/common/streambuf.c ****  *
  10:Core/Src/common/streambuf.c ****  * Cleanflight and Betaflight are distributed in the hope that they
  11:Core/Src/common/streambuf.c ****  * will be useful, but WITHOUT ANY WARRANTY; without even the implied
  12:Core/Src/common/streambuf.c ****  * warranty of MERCHANTABILITY or FITNESS FOR A PARTICULAR PURPOSE.
  13:Core/Src/common/streambuf.c ****  * See the GNU General Public License for more details.
  14:Core/Src/common/streambuf.c ****  *
  15:Core/Src/common/streambuf.c ****  * You should have received a copy of the GNU General Public License
  16:Core/Src/common/streambuf.c ****  * along with this software.
  17:Core/Src/common/streambuf.c ****  *
  18:Core/Src/common/streambuf.c ****  * If not, see <http://www.gnu.org/licenses/>.
  19:Core/Src/common/streambuf.c ****  */
  20:Core/Src/common/streambuf.c **** 
  21:Core/Src/common/streambuf.c **** #include <string.h>
  22:Core/Src/common/streambuf.c **** #include <stdint.h>
  23:Core/Src/common/streambuf.c **** 
  24:Core/Src/common/streambuf.c **** #include "common/streambuf.h"
  25:Core/Src/common/streambuf.c **** 
  26:Core/Src/common/streambuf.c **** sbuf_t *sbufInit(sbuf_t *sbuf, uint8_t *ptr, uint8_t *end)
  27:Core/Src/common/streambuf.c **** {
  30              		.loc 1 27 1 view -0
  31              		.cfi_startproc
ARM GAS  /var/folders/mn/k5wp23016n9dfxcgh9w5nftw0000gn/T//cc5jcjZ1.s 			page 2


  32              		@ args = 0, pretend = 0, frame = 0
  33              		@ frame_needed = 0, uses_anonymous_args = 0
  34              		@ link register save eliminated.
  28:Core/Src/common/streambuf.c ****     sbuf->ptr = ptr;
  35              		.loc 1 28 5 view .LVU1
  36              		.loc 1 28 15 is_stmt 0 view .LVU2
  37 0000 0160     		str	r1, [r0]
  29:Core/Src/common/streambuf.c ****     sbuf->end = end;
  38              		.loc 1 29 5 is_stmt 1 view .LVU3
  39              		.loc 1 29 15 is_stmt 0 view .LVU4
  40 0002 4260     		str	r2, [r0, #4]
  30:Core/Src/common/streambuf.c ****     return sbuf;
  41              		.loc 1 30 5 is_stmt 1 view .LVU5
  31:Core/Src/common/streambuf.c **** }
  42              		.loc 1 31 1 is_stmt 0 view .LVU6
  43 0004 7047     		bx	lr
  44              		.cfi_endproc
  45              	.LFE0:
  47              		.section	.text.sbufWriteU8,"ax",%progbits
  48              		.align	1
  49              		.global	sbufWriteU8
  50              		.syntax unified
  51              		.thumb
  52              		.thumb_func
  54              	sbufWriteU8:
  55              	.LVL1:
  56              	.LFB1:
  32:Core/Src/common/streambuf.c **** 
  33:Core/Src/common/streambuf.c **** void sbufWriteU8(sbuf_t *dst, uint8_t val)
  34:Core/Src/common/streambuf.c **** {
  57              		.loc 1 34 1 is_stmt 1 view -0
  58              		.cfi_startproc
  59              		@ args = 0, pretend = 0, frame = 0
  60              		@ frame_needed = 0, uses_anonymous_args = 0
  61              		@ link register save eliminated.
  35:Core/Src/common/streambuf.c ****     *dst->ptr++ = val;
  62              		.loc 1 35 5 view .LVU8
  63              		.loc 1 35 9 is_stmt 0 view .LVU9
  64 0000 0368     		ldr	r3, [r0]
  65              		.loc 1 35 14 view .LVU10
  66 0002 5A1C     		adds	r2, r3, #1
  67 0004 0260     		str	r2, [r0]
  68              		.loc 1 35 17 view .LVU11
  69 0006 1970     		strb	r1, [r3]
  36:Core/Src/common/streambuf.c **** }
  70              		.loc 1 36 1 view .LVU12
  71 0008 7047     		bx	lr
  72              		.cfi_endproc
  73              	.LFE1:
  75              		.section	.text.sbufWriteU16,"ax",%progbits
  76              		.align	1
  77              		.global	sbufWriteU16
  78              		.syntax unified
  79              		.thumb
  80              		.thumb_func
  82              	sbufWriteU16:
  83              	.LVL2:
ARM GAS  /var/folders/mn/k5wp23016n9dfxcgh9w5nftw0000gn/T//cc5jcjZ1.s 			page 3


  84              	.LFB2:
  37:Core/Src/common/streambuf.c **** 
  38:Core/Src/common/streambuf.c **** void sbufWriteU16(sbuf_t *dst, uint16_t val)
  39:Core/Src/common/streambuf.c **** {
  85              		.loc 1 39 1 is_stmt 1 view -0
  86              		.cfi_startproc
  87              		@ args = 0, pretend = 0, frame = 0
  88              		@ frame_needed = 0, uses_anonymous_args = 0
  89              		.loc 1 39 1 is_stmt 0 view .LVU14
  90 0000 38B5     		push	{r3, r4, r5, lr}
  91              	.LCFI0:
  92              		.cfi_def_cfa_offset 16
  93              		.cfi_offset 3, -16
  94              		.cfi_offset 4, -12
  95              		.cfi_offset 5, -8
  96              		.cfi_offset 14, -4
  97 0002 0546     		mov	r5, r0
  98 0004 0C46     		mov	r4, r1
  40:Core/Src/common/streambuf.c ****     sbufWriteU8(dst, val >> 0);
  99              		.loc 1 40 5 is_stmt 1 view .LVU15
 100 0006 C9B2     		uxtb	r1, r1
 101              	.LVL3:
 102              		.loc 1 40 5 is_stmt 0 view .LVU16
 103 0008 FFF7FEFF 		bl	sbufWriteU8
 104              	.LVL4:
  41:Core/Src/common/streambuf.c ****     sbufWriteU8(dst, val >> 8);
 105              		.loc 1 41 5 is_stmt 1 view .LVU17
 106 000c 210A     		lsrs	r1, r4, #8
 107 000e 2846     		mov	r0, r5
 108 0010 FFF7FEFF 		bl	sbufWriteU8
 109              	.LVL5:
  42:Core/Src/common/streambuf.c **** }
 110              		.loc 1 42 1 is_stmt 0 view .LVU18
 111 0014 38BD     		pop	{r3, r4, r5, pc}
 112              		.loc 1 42 1 view .LVU19
 113              		.cfi_endproc
 114              	.LFE2:
 116              		.section	.text.sbufWriteU32,"ax",%progbits
 117              		.align	1
 118              		.global	sbufWriteU32
 119              		.syntax unified
 120              		.thumb
 121              		.thumb_func
 123              	sbufWriteU32:
 124              	.LVL6:
 125              	.LFB3:
  43:Core/Src/common/streambuf.c **** 
  44:Core/Src/common/streambuf.c **** void sbufWriteU32(sbuf_t *dst, uint32_t val)
  45:Core/Src/common/streambuf.c **** {
 126              		.loc 1 45 1 is_stmt 1 view -0
 127              		.cfi_startproc
 128              		@ args = 0, pretend = 0, frame = 0
 129              		@ frame_needed = 0, uses_anonymous_args = 0
 130              		.loc 1 45 1 is_stmt 0 view .LVU21
 131 0000 38B5     		push	{r3, r4, r5, lr}
 132              	.LCFI1:
 133              		.cfi_def_cfa_offset 16
ARM GAS  /var/folders/mn/k5wp23016n9dfxcgh9w5nftw0000gn/T//cc5jcjZ1.s 			page 4


 134              		.cfi_offset 3, -16
 135              		.cfi_offset 4, -12
 136              		.cfi_offset 5, -8
 137              		.cfi_offset 14, -4
 138 0002 0546     		mov	r5, r0
 139 0004 0C46     		mov	r4, r1
  46:Core/Src/common/streambuf.c ****     sbufWriteU8(dst, val >> 0);
 140              		.loc 1 46 5 is_stmt 1 view .LVU22
 141 0006 C9B2     		uxtb	r1, r1
 142              	.LVL7:
 143              		.loc 1 46 5 is_stmt 0 view .LVU23
 144 0008 FFF7FEFF 		bl	sbufWriteU8
 145              	.LVL8:
  47:Core/Src/common/streambuf.c ****     sbufWriteU8(dst, val >> 8);
 146              		.loc 1 47 5 is_stmt 1 view .LVU24
 147 000c C4F30721 		ubfx	r1, r4, #8, #8
 148 0010 2846     		mov	r0, r5
 149 0012 FFF7FEFF 		bl	sbufWriteU8
 150              	.LVL9:
  48:Core/Src/common/streambuf.c ****     sbufWriteU8(dst, val >> 16);
 151              		.loc 1 48 5 view .LVU25
 152 0016 C4F30741 		ubfx	r1, r4, #16, #8
 153 001a 2846     		mov	r0, r5
 154 001c FFF7FEFF 		bl	sbufWriteU8
 155              	.LVL10:
  49:Core/Src/common/streambuf.c ****     sbufWriteU8(dst, val >> 24);
 156              		.loc 1 49 5 view .LVU26
 157 0020 210E     		lsrs	r1, r4, #24
 158 0022 2846     		mov	r0, r5
 159 0024 FFF7FEFF 		bl	sbufWriteU8
 160              	.LVL11:
  50:Core/Src/common/streambuf.c **** }
 161              		.loc 1 50 1 is_stmt 0 view .LVU27
 162 0028 38BD     		pop	{r3, r4, r5, pc}
 163              		.loc 1 50 1 view .LVU28
 164              		.cfi_endproc
 165              	.LFE3:
 167              		.section	.text.sbufWriteU16BigEndian,"ax",%progbits
 168              		.align	1
 169              		.global	sbufWriteU16BigEndian
 170              		.syntax unified
 171              		.thumb
 172              		.thumb_func
 174              	sbufWriteU16BigEndian:
 175              	.LVL12:
 176              	.LFB4:
  51:Core/Src/common/streambuf.c **** 
  52:Core/Src/common/streambuf.c **** void sbufWriteU16BigEndian(sbuf_t *dst, uint16_t val)
  53:Core/Src/common/streambuf.c **** {
 177              		.loc 1 53 1 is_stmt 1 view -0
 178              		.cfi_startproc
 179              		@ args = 0, pretend = 0, frame = 0
 180              		@ frame_needed = 0, uses_anonymous_args = 0
 181              		.loc 1 53 1 is_stmt 0 view .LVU30
 182 0000 38B5     		push	{r3, r4, r5, lr}
 183              	.LCFI2:
 184              		.cfi_def_cfa_offset 16
ARM GAS  /var/folders/mn/k5wp23016n9dfxcgh9w5nftw0000gn/T//cc5jcjZ1.s 			page 5


 185              		.cfi_offset 3, -16
 186              		.cfi_offset 4, -12
 187              		.cfi_offset 5, -8
 188              		.cfi_offset 14, -4
 189 0002 0546     		mov	r5, r0
 190 0004 0C46     		mov	r4, r1
  54:Core/Src/common/streambuf.c ****     sbufWriteU8(dst, val >> 8);
 191              		.loc 1 54 5 is_stmt 1 view .LVU31
 192 0006 090A     		lsrs	r1, r1, #8
 193              	.LVL13:
 194              		.loc 1 54 5 is_stmt 0 view .LVU32
 195 0008 FFF7FEFF 		bl	sbufWriteU8
 196              	.LVL14:
  55:Core/Src/common/streambuf.c ****     sbufWriteU8(dst, (uint8_t)val);
 197              		.loc 1 55 5 is_stmt 1 view .LVU33
 198 000c E1B2     		uxtb	r1, r4
 199 000e 2846     		mov	r0, r5
 200 0010 FFF7FEFF 		bl	sbufWriteU8
 201              	.LVL15:
  56:Core/Src/common/streambuf.c **** }
 202              		.loc 1 56 1 is_stmt 0 view .LVU34
 203 0014 38BD     		pop	{r3, r4, r5, pc}
 204              		.loc 1 56 1 view .LVU35
 205              		.cfi_endproc
 206              	.LFE4:
 208              		.section	.text.sbufWriteU32BigEndian,"ax",%progbits
 209              		.align	1
 210              		.global	sbufWriteU32BigEndian
 211              		.syntax unified
 212              		.thumb
 213              		.thumb_func
 215              	sbufWriteU32BigEndian:
 216              	.LVL16:
 217              	.LFB5:
  57:Core/Src/common/streambuf.c **** 
  58:Core/Src/common/streambuf.c **** void sbufWriteU32BigEndian(sbuf_t *dst, uint32_t val)
  59:Core/Src/common/streambuf.c **** {
 218              		.loc 1 59 1 is_stmt 1 view -0
 219              		.cfi_startproc
 220              		@ args = 0, pretend = 0, frame = 0
 221              		@ frame_needed = 0, uses_anonymous_args = 0
 222              		.loc 1 59 1 is_stmt 0 view .LVU37
 223 0000 38B5     		push	{r3, r4, r5, lr}
 224              	.LCFI3:
 225              		.cfi_def_cfa_offset 16
 226              		.cfi_offset 3, -16
 227              		.cfi_offset 4, -12
 228              		.cfi_offset 5, -8
 229              		.cfi_offset 14, -4
 230 0002 0546     		mov	r5, r0
 231 0004 0C46     		mov	r4, r1
  60:Core/Src/common/streambuf.c ****     sbufWriteU8(dst, val >> 24);
 232              		.loc 1 60 5 is_stmt 1 view .LVU38
 233 0006 090E     		lsrs	r1, r1, #24
 234              	.LVL17:
 235              		.loc 1 60 5 is_stmt 0 view .LVU39
 236 0008 FFF7FEFF 		bl	sbufWriteU8
ARM GAS  /var/folders/mn/k5wp23016n9dfxcgh9w5nftw0000gn/T//cc5jcjZ1.s 			page 6


 237              	.LVL18:
  61:Core/Src/common/streambuf.c ****     sbufWriteU8(dst, val >> 16);
 238              		.loc 1 61 5 is_stmt 1 view .LVU40
 239 000c C4F30741 		ubfx	r1, r4, #16, #8
 240 0010 2846     		mov	r0, r5
 241 0012 FFF7FEFF 		bl	sbufWriteU8
 242              	.LVL19:
  62:Core/Src/common/streambuf.c ****     sbufWriteU8(dst, val >> 8);
 243              		.loc 1 62 5 view .LVU41
 244 0016 C4F30721 		ubfx	r1, r4, #8, #8
 245 001a 2846     		mov	r0, r5
 246 001c FFF7FEFF 		bl	sbufWriteU8
 247              	.LVL20:
  63:Core/Src/common/streambuf.c ****     sbufWriteU8(dst, (uint8_t)val);
 248              		.loc 1 63 5 view .LVU42
 249 0020 E1B2     		uxtb	r1, r4
 250 0022 2846     		mov	r0, r5
 251 0024 FFF7FEFF 		bl	sbufWriteU8
 252              	.LVL21:
  64:Core/Src/common/streambuf.c **** }
 253              		.loc 1 64 1 is_stmt 0 view .LVU43
 254 0028 38BD     		pop	{r3, r4, r5, pc}
 255              		.loc 1 64 1 view .LVU44
 256              		.cfi_endproc
 257              	.LFE5:
 259              		.section	.text.sbufFill,"ax",%progbits
 260              		.align	1
 261              		.global	sbufFill
 262              		.syntax unified
 263              		.thumb
 264              		.thumb_func
 266              	sbufFill:
 267              	.LVL22:
 268              	.LFB6:
  65:Core/Src/common/streambuf.c **** 
  66:Core/Src/common/streambuf.c **** 
  67:Core/Src/common/streambuf.c **** void sbufFill(sbuf_t *dst, uint8_t data, int len)
  68:Core/Src/common/streambuf.c **** {
 269              		.loc 1 68 1 is_stmt 1 view -0
 270              		.cfi_startproc
 271              		@ args = 0, pretend = 0, frame = 0
 272              		@ frame_needed = 0, uses_anonymous_args = 0
 273              		.loc 1 68 1 is_stmt 0 view .LVU46
 274 0000 38B5     		push	{r3, r4, r5, lr}
 275              	.LCFI4:
 276              		.cfi_def_cfa_offset 16
 277              		.cfi_offset 3, -16
 278              		.cfi_offset 4, -12
 279              		.cfi_offset 5, -8
 280              		.cfi_offset 14, -4
 281 0002 0446     		mov	r4, r0
 282 0004 1546     		mov	r5, r2
  69:Core/Src/common/streambuf.c ****     memset(dst->ptr, data, len);
 283              		.loc 1 69 5 is_stmt 1 view .LVU47
 284 0006 0068     		ldr	r0, [r0]
 285              	.LVL23:
 286              		.loc 1 69 5 is_stmt 0 view .LVU48
ARM GAS  /var/folders/mn/k5wp23016n9dfxcgh9w5nftw0000gn/T//cc5jcjZ1.s 			page 7


 287 0008 FFF7FEFF 		bl	memset
 288              	.LVL24:
  70:Core/Src/common/streambuf.c ****     dst->ptr += len;
 289              		.loc 1 70 5 is_stmt 1 view .LVU49
 290              		.loc 1 70 8 is_stmt 0 view .LVU50
 291 000c 2368     		ldr	r3, [r4]
 292              		.loc 1 70 14 view .LVU51
 293 000e 2B44     		add	r3, r3, r5
 294 0010 2360     		str	r3, [r4]
  71:Core/Src/common/streambuf.c **** }
 295              		.loc 1 71 1 view .LVU52
 296 0012 38BD     		pop	{r3, r4, r5, pc}
 297              		.loc 1 71 1 view .LVU53
 298              		.cfi_endproc
 299              	.LFE6:
 301              		.section	.text.sbufWriteData,"ax",%progbits
 302              		.align	1
 303              		.global	sbufWriteData
 304              		.syntax unified
 305              		.thumb
 306              		.thumb_func
 308              	sbufWriteData:
 309              	.LVL25:
 310              	.LFB7:
  72:Core/Src/common/streambuf.c **** 
  73:Core/Src/common/streambuf.c **** void sbufWriteData(sbuf_t *dst, const void *data, int len)
  74:Core/Src/common/streambuf.c **** {
 311              		.loc 1 74 1 is_stmt 1 view -0
 312              		.cfi_startproc
 313              		@ args = 0, pretend = 0, frame = 0
 314              		@ frame_needed = 0, uses_anonymous_args = 0
 315              		.loc 1 74 1 is_stmt 0 view .LVU55
 316 0000 38B5     		push	{r3, r4, r5, lr}
 317              	.LCFI5:
 318              		.cfi_def_cfa_offset 16
 319              		.cfi_offset 3, -16
 320              		.cfi_offset 4, -12
 321              		.cfi_offset 5, -8
 322              		.cfi_offset 14, -4
 323 0002 0446     		mov	r4, r0
 324 0004 1546     		mov	r5, r2
  75:Core/Src/common/streambuf.c ****     memcpy(dst->ptr, data, len);
 325              		.loc 1 75 5 is_stmt 1 view .LVU56
 326 0006 0068     		ldr	r0, [r0]
 327              	.LVL26:
 328              		.loc 1 75 5 is_stmt 0 view .LVU57
 329 0008 FFF7FEFF 		bl	memcpy
 330              	.LVL27:
  76:Core/Src/common/streambuf.c ****     dst->ptr += len;
 331              		.loc 1 76 5 is_stmt 1 view .LVU58
 332              		.loc 1 76 8 is_stmt 0 view .LVU59
 333 000c 2368     		ldr	r3, [r4]
 334              		.loc 1 76 14 view .LVU60
 335 000e 2B44     		add	r3, r3, r5
 336 0010 2360     		str	r3, [r4]
  77:Core/Src/common/streambuf.c **** }
 337              		.loc 1 77 1 view .LVU61
ARM GAS  /var/folders/mn/k5wp23016n9dfxcgh9w5nftw0000gn/T//cc5jcjZ1.s 			page 8


 338 0012 38BD     		pop	{r3, r4, r5, pc}
 339              		.loc 1 77 1 view .LVU62
 340              		.cfi_endproc
 341              	.LFE7:
 343              		.section	.text.sbufWriteString,"ax",%progbits
 344              		.align	1
 345              		.global	sbufWriteString
 346              		.syntax unified
 347              		.thumb
 348              		.thumb_func
 350              	sbufWriteString:
 351              	.LVL28:
 352              	.LFB8:
  78:Core/Src/common/streambuf.c **** 
  79:Core/Src/common/streambuf.c **** void sbufWriteString(sbuf_t *dst, const char *string)
  80:Core/Src/common/streambuf.c **** {
 353              		.loc 1 80 1 is_stmt 1 view -0
 354              		.cfi_startproc
 355              		@ args = 0, pretend = 0, frame = 0
 356              		@ frame_needed = 0, uses_anonymous_args = 0
 357              		.loc 1 80 1 is_stmt 0 view .LVU64
 358 0000 38B5     		push	{r3, r4, r5, lr}
 359              	.LCFI6:
 360              		.cfi_def_cfa_offset 16
 361              		.cfi_offset 3, -16
 362              		.cfi_offset 4, -12
 363              		.cfi_offset 5, -8
 364              		.cfi_offset 14, -4
 365 0002 0546     		mov	r5, r0
 366 0004 0C46     		mov	r4, r1
  81:Core/Src/common/streambuf.c ****     sbufWriteData(dst, string, strlen(string));
 367              		.loc 1 81 5 is_stmt 1 view .LVU65
 368              		.loc 1 81 32 is_stmt 0 view .LVU66
 369 0006 0846     		mov	r0, r1
 370              	.LVL29:
 371              		.loc 1 81 32 view .LVU67
 372 0008 FFF7FEFF 		bl	strlen
 373              	.LVL30:
 374              		.loc 1 81 32 view .LVU68
 375 000c 0246     		mov	r2, r0
 376              		.loc 1 81 5 view .LVU69
 377 000e 2146     		mov	r1, r4
 378 0010 2846     		mov	r0, r5
 379 0012 FFF7FEFF 		bl	sbufWriteData
 380              	.LVL31:
  82:Core/Src/common/streambuf.c **** }
 381              		.loc 1 82 1 view .LVU70
 382 0016 38BD     		pop	{r3, r4, r5, pc}
 383              		.loc 1 82 1 view .LVU71
 384              		.cfi_endproc
 385              	.LFE8:
 387              		.section	.text.sbufWriteStringWithZeroTerminator,"ax",%progbits
 388              		.align	1
 389              		.global	sbufWriteStringWithZeroTerminator
 390              		.syntax unified
 391              		.thumb
 392              		.thumb_func
ARM GAS  /var/folders/mn/k5wp23016n9dfxcgh9w5nftw0000gn/T//cc5jcjZ1.s 			page 9


 394              	sbufWriteStringWithZeroTerminator:
 395              	.LVL32:
 396              	.LFB9:
  83:Core/Src/common/streambuf.c **** 
  84:Core/Src/common/streambuf.c **** void sbufWriteStringWithZeroTerminator(sbuf_t *dst, const char *string)
  85:Core/Src/common/streambuf.c **** {
 397              		.loc 1 85 1 is_stmt 1 view -0
 398              		.cfi_startproc
 399              		@ args = 0, pretend = 0, frame = 0
 400              		@ frame_needed = 0, uses_anonymous_args = 0
 401              		.loc 1 85 1 is_stmt 0 view .LVU73
 402 0000 38B5     		push	{r3, r4, r5, lr}
 403              	.LCFI7:
 404              		.cfi_def_cfa_offset 16
 405              		.cfi_offset 3, -16
 406              		.cfi_offset 4, -12
 407              		.cfi_offset 5, -8
 408              		.cfi_offset 14, -4
 409 0002 0546     		mov	r5, r0
 410 0004 0C46     		mov	r4, r1
  86:Core/Src/common/streambuf.c ****     sbufWriteData(dst, string, strlen(string) + 1);
 411              		.loc 1 86 5 is_stmt 1 view .LVU74
 412              		.loc 1 86 32 is_stmt 0 view .LVU75
 413 0006 0846     		mov	r0, r1
 414              	.LVL33:
 415              		.loc 1 86 32 view .LVU76
 416 0008 FFF7FEFF 		bl	strlen
 417              	.LVL34:
 418              		.loc 1 86 5 view .LVU77
 419 000c 421C     		adds	r2, r0, #1
 420 000e 2146     		mov	r1, r4
 421 0010 2846     		mov	r0, r5
 422 0012 FFF7FEFF 		bl	sbufWriteData
 423              	.LVL35:
  87:Core/Src/common/streambuf.c **** }
 424              		.loc 1 87 1 view .LVU78
 425 0016 38BD     		pop	{r3, r4, r5, pc}
 426              		.loc 1 87 1 view .LVU79
 427              		.cfi_endproc
 428              	.LFE9:
 430              		.section	.text.sbufReadU8,"ax",%progbits
 431              		.align	1
 432              		.global	sbufReadU8
 433              		.syntax unified
 434              		.thumb
 435              		.thumb_func
 437              	sbufReadU8:
 438              	.LVL36:
 439              	.LFB10:
  88:Core/Src/common/streambuf.c **** 
  89:Core/Src/common/streambuf.c **** uint8_t sbufReadU8(sbuf_t *src)
  90:Core/Src/common/streambuf.c **** {
 440              		.loc 1 90 1 is_stmt 1 view -0
 441              		.cfi_startproc
 442              		@ args = 0, pretend = 0, frame = 0
 443              		@ frame_needed = 0, uses_anonymous_args = 0
 444              		@ link register save eliminated.
ARM GAS  /var/folders/mn/k5wp23016n9dfxcgh9w5nftw0000gn/T//cc5jcjZ1.s 			page 10


  91:Core/Src/common/streambuf.c ****     return *src->ptr++;
 445              		.loc 1 91 5 view .LVU81
 446              		.loc 1 91 16 is_stmt 0 view .LVU82
 447 0000 0368     		ldr	r3, [r0]
 448              		.loc 1 91 21 view .LVU83
 449 0002 5A1C     		adds	r2, r3, #1
 450 0004 0260     		str	r2, [r0]
  92:Core/Src/common/streambuf.c **** }
 451              		.loc 1 92 1 view .LVU84
 452 0006 1878     		ldrb	r0, [r3]	@ zero_extendqisi2
 453              	.LVL37:
 454              		.loc 1 92 1 view .LVU85
 455 0008 7047     		bx	lr
 456              		.cfi_endproc
 457              	.LFE10:
 459              		.section	.text.sbufReadU16,"ax",%progbits
 460              		.align	1
 461              		.global	sbufReadU16
 462              		.syntax unified
 463              		.thumb
 464              		.thumb_func
 466              	sbufReadU16:
 467              	.LVL38:
 468              	.LFB11:
  93:Core/Src/common/streambuf.c **** 
  94:Core/Src/common/streambuf.c **** uint16_t sbufReadU16(sbuf_t *src)
  95:Core/Src/common/streambuf.c **** {
 469              		.loc 1 95 1 is_stmt 1 view -0
 470              		.cfi_startproc
 471              		@ args = 0, pretend = 0, frame = 0
 472              		@ frame_needed = 0, uses_anonymous_args = 0
 473              		.loc 1 95 1 is_stmt 0 view .LVU87
 474 0000 38B5     		push	{r3, r4, r5, lr}
 475              	.LCFI8:
 476              		.cfi_def_cfa_offset 16
 477              		.cfi_offset 3, -16
 478              		.cfi_offset 4, -12
 479              		.cfi_offset 5, -8
 480              		.cfi_offset 14, -4
 481 0002 0546     		mov	r5, r0
  96:Core/Src/common/streambuf.c ****     uint16_t ret;
 482              		.loc 1 96 5 is_stmt 1 view .LVU88
  97:Core/Src/common/streambuf.c ****     ret = sbufReadU8(src);
 483              		.loc 1 97 5 view .LVU89
 484              		.loc 1 97 11 is_stmt 0 view .LVU90
 485 0004 FFF7FEFF 		bl	sbufReadU8
 486              	.LVL39:
 487              		.loc 1 97 11 view .LVU91
 488 0008 0446     		mov	r4, r0
 489              	.LVL40:
  98:Core/Src/common/streambuf.c ****     ret |= sbufReadU8(src) << 8;
 490              		.loc 1 98 5 is_stmt 1 view .LVU92
 491              		.loc 1 98 12 is_stmt 0 view .LVU93
 492 000a 2846     		mov	r0, r5
 493 000c FFF7FEFF 		bl	sbufReadU8
 494              	.LVL41:
 495              		.loc 1 98 9 view .LVU94
ARM GAS  /var/folders/mn/k5wp23016n9dfxcgh9w5nftw0000gn/T//cc5jcjZ1.s 			page 11


 496 0010 44EA0020 		orr	r0, r4, r0, lsl #8
 497              	.LVL42:
  99:Core/Src/common/streambuf.c ****     return ret;
 498              		.loc 1 99 5 is_stmt 1 view .LVU95
 100:Core/Src/common/streambuf.c **** }
 499              		.loc 1 100 1 is_stmt 0 view .LVU96
 500 0014 80B2     		uxth	r0, r0
 501              		.loc 1 100 1 view .LVU97
 502 0016 38BD     		pop	{r3, r4, r5, pc}
 503              		.loc 1 100 1 view .LVU98
 504              		.cfi_endproc
 505              	.LFE11:
 507              		.section	.text.sbufReadU32,"ax",%progbits
 508              		.align	1
 509              		.global	sbufReadU32
 510              		.syntax unified
 511              		.thumb
 512              		.thumb_func
 514              	sbufReadU32:
 515              	.LVL43:
 516              	.LFB12:
 101:Core/Src/common/streambuf.c **** 
 102:Core/Src/common/streambuf.c **** uint32_t sbufReadU32(sbuf_t *src)
 103:Core/Src/common/streambuf.c **** {
 517              		.loc 1 103 1 is_stmt 1 view -0
 518              		.cfi_startproc
 519              		@ args = 0, pretend = 0, frame = 0
 520              		@ frame_needed = 0, uses_anonymous_args = 0
 521              		.loc 1 103 1 is_stmt 0 view .LVU100
 522 0000 38B5     		push	{r3, r4, r5, lr}
 523              	.LCFI9:
 524              		.cfi_def_cfa_offset 16
 525              		.cfi_offset 3, -16
 526              		.cfi_offset 4, -12
 527              		.cfi_offset 5, -8
 528              		.cfi_offset 14, -4
 529 0002 0546     		mov	r5, r0
 104:Core/Src/common/streambuf.c ****     uint32_t ret;
 530              		.loc 1 104 5 is_stmt 1 view .LVU101
 105:Core/Src/common/streambuf.c ****     ret = sbufReadU8(src);
 531              		.loc 1 105 5 view .LVU102
 532              		.loc 1 105 11 is_stmt 0 view .LVU103
 533 0004 FFF7FEFF 		bl	sbufReadU8
 534              	.LVL44:
 535              		.loc 1 105 11 view .LVU104
 536 0008 0446     		mov	r4, r0
 537              	.LVL45:
 106:Core/Src/common/streambuf.c ****     ret |= sbufReadU8(src) <<  8;
 538              		.loc 1 106 5 is_stmt 1 view .LVU105
 539              		.loc 1 106 12 is_stmt 0 view .LVU106
 540 000a 2846     		mov	r0, r5
 541              	.LVL46:
 542              		.loc 1 106 12 view .LVU107
 543 000c FFF7FEFF 		bl	sbufReadU8
 544              	.LVL47:
 545              		.loc 1 106 9 view .LVU108
 546 0010 44EA0024 		orr	r4, r4, r0, lsl #8
ARM GAS  /var/folders/mn/k5wp23016n9dfxcgh9w5nftw0000gn/T//cc5jcjZ1.s 			page 12


 547              	.LVL48:
 107:Core/Src/common/streambuf.c ****     ret |= sbufReadU8(src) << 16;
 548              		.loc 1 107 5 is_stmt 1 view .LVU109
 549              		.loc 1 107 12 is_stmt 0 view .LVU110
 550 0014 2846     		mov	r0, r5
 551 0016 FFF7FEFF 		bl	sbufReadU8
 552              	.LVL49:
 553              		.loc 1 107 9 view .LVU111
 554 001a 44EA0044 		orr	r4, r4, r0, lsl #16
 555              	.LVL50:
 108:Core/Src/common/streambuf.c ****     ret |= sbufReadU8(src) << 24;
 556              		.loc 1 108 5 is_stmt 1 view .LVU112
 557              		.loc 1 108 12 is_stmt 0 view .LVU113
 558 001e 2846     		mov	r0, r5
 559 0020 FFF7FEFF 		bl	sbufReadU8
 560              	.LVL51:
 109:Core/Src/common/streambuf.c ****     return ret;
 561              		.loc 1 109 5 is_stmt 1 view .LVU114
 110:Core/Src/common/streambuf.c **** }
 562              		.loc 1 110 1 is_stmt 0 view .LVU115
 563 0024 44EA0060 		orr	r0, r4, r0, lsl #24
 564              	.LVL52:
 565              		.loc 1 110 1 view .LVU116
 566 0028 38BD     		pop	{r3, r4, r5, pc}
 567              		.loc 1 110 1 view .LVU117
 568              		.cfi_endproc
 569              	.LFE12:
 571              		.section	.text.sbufReadData,"ax",%progbits
 572              		.align	1
 573              		.global	sbufReadData
 574              		.syntax unified
 575              		.thumb
 576              		.thumb_func
 578              	sbufReadData:
 579              	.LVL53:
 580              	.LFB13:
 111:Core/Src/common/streambuf.c **** 
 112:Core/Src/common/streambuf.c **** void sbufReadData(sbuf_t *src, void *data, int len)
 113:Core/Src/common/streambuf.c **** {
 581              		.loc 1 113 1 is_stmt 1 view -0
 582              		.cfi_startproc
 583              		@ args = 0, pretend = 0, frame = 0
 584              		@ frame_needed = 0, uses_anonymous_args = 0
 585              		.loc 1 113 1 is_stmt 0 view .LVU119
 586 0000 08B5     		push	{r3, lr}
 587              	.LCFI10:
 588              		.cfi_def_cfa_offset 8
 589              		.cfi_offset 3, -8
 590              		.cfi_offset 14, -4
 591 0002 0B46     		mov	r3, r1
 114:Core/Src/common/streambuf.c ****     memcpy(data, src->ptr, len);
 592              		.loc 1 114 5 is_stmt 1 view .LVU120
 593 0004 0168     		ldr	r1, [r0]
 594              	.LVL54:
 595              		.loc 1 114 5 is_stmt 0 view .LVU121
 596 0006 1846     		mov	r0, r3
 597              	.LVL55:
ARM GAS  /var/folders/mn/k5wp23016n9dfxcgh9w5nftw0000gn/T//cc5jcjZ1.s 			page 13


 598              		.loc 1 114 5 view .LVU122
 599 0008 FFF7FEFF 		bl	memcpy
 600              	.LVL56:
 115:Core/Src/common/streambuf.c **** }
 601              		.loc 1 115 1 view .LVU123
 602 000c 08BD     		pop	{r3, pc}
 603              		.cfi_endproc
 604              	.LFE13:
 606              		.section	.text.sbufBytesRemaining,"ax",%progbits
 607              		.align	1
 608              		.global	sbufBytesRemaining
 609              		.syntax unified
 610              		.thumb
 611              		.thumb_func
 613              	sbufBytesRemaining:
 614              	.LVL57:
 615              	.LFB14:
 116:Core/Src/common/streambuf.c **** 
 117:Core/Src/common/streambuf.c **** // reader - return bytes remaining in buffer
 118:Core/Src/common/streambuf.c **** // writer - return available space
 119:Core/Src/common/streambuf.c **** int sbufBytesRemaining(sbuf_t *buf)
 120:Core/Src/common/streambuf.c **** {
 616              		.loc 1 120 1 is_stmt 1 view -0
 617              		.cfi_startproc
 618              		@ args = 0, pretend = 0, frame = 0
 619              		@ frame_needed = 0, uses_anonymous_args = 0
 620              		@ link register save eliminated.
 121:Core/Src/common/streambuf.c ****     return buf->end - buf->ptr;
 621              		.loc 1 121 5 view .LVU125
 622              		.loc 1 121 15 is_stmt 0 view .LVU126
 623 0000 4268     		ldr	r2, [r0, #4]
 624              		.loc 1 121 26 view .LVU127
 625 0002 0068     		ldr	r0, [r0]
 626              	.LVL58:
 122:Core/Src/common/streambuf.c **** }
 627              		.loc 1 122 1 view .LVU128
 628 0004 101A     		subs	r0, r2, r0
 629 0006 7047     		bx	lr
 630              		.cfi_endproc
 631              	.LFE14:
 633              		.section	.text.sbufPtr,"ax",%progbits
 634              		.align	1
 635              		.global	sbufPtr
 636              		.syntax unified
 637              		.thumb
 638              		.thumb_func
 640              	sbufPtr:
 641              	.LVL59:
 642              	.LFB15:
 123:Core/Src/common/streambuf.c **** 
 124:Core/Src/common/streambuf.c **** uint8_t* sbufPtr(sbuf_t *buf)
 125:Core/Src/common/streambuf.c **** {
 643              		.loc 1 125 1 is_stmt 1 view -0
 644              		.cfi_startproc
 645              		@ args = 0, pretend = 0, frame = 0
 646              		@ frame_needed = 0, uses_anonymous_args = 0
 647              		@ link register save eliminated.
ARM GAS  /var/folders/mn/k5wp23016n9dfxcgh9w5nftw0000gn/T//cc5jcjZ1.s 			page 14


 126:Core/Src/common/streambuf.c ****     return buf->ptr;
 648              		.loc 1 126 5 view .LVU130
 127:Core/Src/common/streambuf.c **** }
 649              		.loc 1 127 1 is_stmt 0 view .LVU131
 650 0000 0068     		ldr	r0, [r0]
 651              	.LVL60:
 652              		.loc 1 127 1 view .LVU132
 653 0002 7047     		bx	lr
 654              		.cfi_endproc
 655              	.LFE15:
 657              		.section	.text.sbufConstPtr,"ax",%progbits
 658              		.align	1
 659              		.global	sbufConstPtr
 660              		.syntax unified
 661              		.thumb
 662              		.thumb_func
 664              	sbufConstPtr:
 665              	.LVL61:
 666              	.LFB16:
 128:Core/Src/common/streambuf.c **** 
 129:Core/Src/common/streambuf.c **** const uint8_t* sbufConstPtr(const sbuf_t *buf)
 130:Core/Src/common/streambuf.c **** {
 667              		.loc 1 130 1 is_stmt 1 view -0
 668              		.cfi_startproc
 669              		@ args = 0, pretend = 0, frame = 0
 670              		@ frame_needed = 0, uses_anonymous_args = 0
 671              		@ link register save eliminated.
 131:Core/Src/common/streambuf.c ****     return buf->ptr;
 672              		.loc 1 131 5 view .LVU134
 132:Core/Src/common/streambuf.c **** }
 673              		.loc 1 132 1 is_stmt 0 view .LVU135
 674 0000 0068     		ldr	r0, [r0]
 675              	.LVL62:
 676              		.loc 1 132 1 view .LVU136
 677 0002 7047     		bx	lr
 678              		.cfi_endproc
 679              	.LFE16:
 681              		.section	.text.sbufAdvance,"ax",%progbits
 682              		.align	1
 683              		.global	sbufAdvance
 684              		.syntax unified
 685              		.thumb
 686              		.thumb_func
 688              	sbufAdvance:
 689              	.LVL63:
 690              	.LFB17:
 133:Core/Src/common/streambuf.c **** 
 134:Core/Src/common/streambuf.c **** // advance buffer pointer
 135:Core/Src/common/streambuf.c **** // reader - skip data
 136:Core/Src/common/streambuf.c **** // writer - commit written data
 137:Core/Src/common/streambuf.c **** void sbufAdvance(sbuf_t *buf, int size)
 138:Core/Src/common/streambuf.c **** {
 691              		.loc 1 138 1 is_stmt 1 view -0
 692              		.cfi_startproc
 693              		@ args = 0, pretend = 0, frame = 0
 694              		@ frame_needed = 0, uses_anonymous_args = 0
 695              		@ link register save eliminated.
ARM GAS  /var/folders/mn/k5wp23016n9dfxcgh9w5nftw0000gn/T//cc5jcjZ1.s 			page 15


 139:Core/Src/common/streambuf.c ****     buf->ptr += size;
 696              		.loc 1 139 5 view .LVU138
 697              		.loc 1 139 8 is_stmt 0 view .LVU139
 698 0000 0368     		ldr	r3, [r0]
 699              		.loc 1 139 14 view .LVU140
 700 0002 0B44     		add	r3, r3, r1
 701 0004 0360     		str	r3, [r0]
 140:Core/Src/common/streambuf.c **** }
 702              		.loc 1 140 1 view .LVU141
 703 0006 7047     		bx	lr
 704              		.cfi_endproc
 705              	.LFE17:
 707              		.section	.text.sbufSwitchToReader,"ax",%progbits
 708              		.align	1
 709              		.global	sbufSwitchToReader
 710              		.syntax unified
 711              		.thumb
 712              		.thumb_func
 714              	sbufSwitchToReader:
 715              	.LVL64:
 716              	.LFB18:
 141:Core/Src/common/streambuf.c **** 
 142:Core/Src/common/streambuf.c **** // modifies streambuf so that written data are prepared for reading
 143:Core/Src/common/streambuf.c **** void sbufSwitchToReader(sbuf_t *buf, uint8_t *base)
 144:Core/Src/common/streambuf.c **** {
 717              		.loc 1 144 1 is_stmt 1 view -0
 718              		.cfi_startproc
 719              		@ args = 0, pretend = 0, frame = 0
 720              		@ frame_needed = 0, uses_anonymous_args = 0
 721              		@ link register save eliminated.
 145:Core/Src/common/streambuf.c ****     buf->end = buf->ptr;
 722              		.loc 1 145 5 view .LVU143
 723              		.loc 1 145 19 is_stmt 0 view .LVU144
 724 0000 0368     		ldr	r3, [r0]
 725              		.loc 1 145 14 view .LVU145
 726 0002 4360     		str	r3, [r0, #4]
 146:Core/Src/common/streambuf.c ****     buf->ptr = base;
 727              		.loc 1 146 5 is_stmt 1 view .LVU146
 728              		.loc 1 146 14 is_stmt 0 view .LVU147
 729 0004 0160     		str	r1, [r0]
 147:Core/Src/common/streambuf.c **** }
 730              		.loc 1 147 1 view .LVU148
 731 0006 7047     		bx	lr
 732              		.cfi_endproc
 733              	.LFE18:
 735              		.text
 736              	.Letext0:
 737              		.file 2 "/Users/echo/Development/arm-gnu-toolchain/arm64-arm-none-eabi12/lib/gcc/arm-none-eabi/12.
 738              		.file 3 "/Users/echo/Development/arm-gnu-toolchain/arm64-arm-none-eabi12/arm-none-eabi/include/mac
 739              		.file 4 "/Users/echo/Development/arm-gnu-toolchain/arm64-arm-none-eabi12/arm-none-eabi/include/sys
 740              		.file 5 "Core/Inc/common/streambuf.h"
 741              		.file 6 "/Users/echo/Development/arm-gnu-toolchain/arm64-arm-none-eabi12/arm-none-eabi/include/str
 742              		.file 7 "<built-in>"
ARM GAS  /var/folders/mn/k5wp23016n9dfxcgh9w5nftw0000gn/T//cc5jcjZ1.s 			page 16

