ARM GAS  /var/folders/mn/k5wp23016n9dfxcgh9w5nftw0000gn/T//ccovtHy2.s 			page 1


   1              		.cpu cortex-m4
   2              		.arch armv7e-m
   3              		.fpu fpv4-sp-d16
   4              		.eabi_attribute 27, 1
   5              		.eabi_attribute 28, 1
   6              		.eabi_attribute 20, 1
   7              		.eabi_attribute 21, 1
   8              		.eabi_attribute 23, 3
   9              		.eabi_attribute 24, 1
  10              		.eabi_attribute 25, 1
  11              		.eabi_attribute 26, 1
  12              		.eabi_attribute 30, 1
  13              		.eabi_attribute 34, 1
  14              		.eabi_attribute 18, 4
  15              		.file	"system.c"
  16              		.text
  17              	.Ltext0:
  18              		.cfi_sections	.debug_frame
  19              		.file 1 "Core/Src/driver/system.c"
  20              		.section	.text.cycleCounterInit,"ax",%progbits
  21              		.align	1
  22              		.global	cycleCounterInit
  23              		.syntax unified
  24              		.thumb
  25              		.thumb_func
  27              	cycleCounterInit:
  28              	.LFB221:
   1:Core/Src/driver/system.c **** #include "driver/system.h"
   2:Core/Src/driver/system.c **** #include  "FreeRTOS.h"
   3:Core/Src/driver/system.c **** #include "stm32f4xx_hal.h"
   4:Core/Src/driver/system.c **** #include "stm32f4xx_hal_rcc.h"
   5:Core/Src/driver/system.c **** #include "task.h"
   6:Core/Src/driver/system.c **** #include <stdint.h>
   7:Core/Src/driver/system.c **** 
   8:Core/Src/driver/system.c **** volatile int sysTickPending = 0;
   9:Core/Src/driver/system.c **** volatile uint32_t sysTickUptime = 0;
  10:Core/Src/driver/system.c **** volatile uint32_t sysTickValStamp = 0;
  11:Core/Src/driver/system.c **** static uint32_t cpuClockFrequency = 0;
  12:Core/Src/driver/system.c **** static volatile uint32_t usTicks = 0;
  13:Core/Src/driver/system.c **** extern TIM_HandleTypeDef        htim11;
  14:Core/Src/driver/system.c **** uint32_t microsISR(void);
  15:Core/Src/driver/system.c **** void SysTick_Handler(void);
  16:Core/Src/driver/system.c **** void cycleCounterInit(void);
  17:Core/Src/driver/system.c **** 
  18:Core/Src/driver/system.c **** void cycleCounterInit(void) {
  29              		.loc 1 18 29 view -0
  30              		.cfi_startproc
  31              		@ args = 0, pretend = 0, frame = 0
  32              		@ frame_needed = 0, uses_anonymous_args = 0
  33 0000 08B5     		push	{r3, lr}
  34              	.LCFI0:
  35              		.cfi_def_cfa_offset 8
  36              		.cfi_offset 3, -8
  37              		.cfi_offset 14, -4
  19:Core/Src/driver/system.c ****   cpuClockFrequency = HAL_RCC_GetSysClockFreq(); 
  38              		.loc 1 19 3 view .LVU1
  39              		.loc 1 19 23 is_stmt 0 view .LVU2
ARM GAS  /var/folders/mn/k5wp23016n9dfxcgh9w5nftw0000gn/T//ccovtHy2.s 			page 2


  40 0002 FFF7FEFF 		bl	HAL_RCC_GetSysClockFreq
  41              	.LVL0:
  42              		.loc 1 19 21 view .LVU3
  43 0006 044B     		ldr	r3, .L3
  44 0008 1860     		str	r0, [r3]
  20:Core/Src/driver/system.c ****   usTicks = cpuClockFrequency / 1000000;
  45              		.loc 1 20 3 is_stmt 1 view .LVU4
  46              		.loc 1 20 31 is_stmt 0 view .LVU5
  47 000a 044B     		ldr	r3, .L3+4
  48 000c A3FB0030 		umull	r3, r0, r3, r0
  49 0010 800C     		lsrs	r0, r0, #18
  50              		.loc 1 20 11 view .LVU6
  51 0012 034B     		ldr	r3, .L3+8
  52 0014 1860     		str	r0, [r3]
  21:Core/Src/driver/system.c **** }
  53              		.loc 1 21 1 view .LVU7
  54 0016 08BD     		pop	{r3, pc}
  55              	.L4:
  56              		.align	2
  57              	.L3:
  58 0018 00000000 		.word	cpuClockFrequency
  59 001c 83DE1B43 		.word	1125899907
  60 0020 00000000 		.word	usTicks
  61              		.cfi_endproc
  62              	.LFE221:
  64              		.section	.text.microsISR,"ax",%progbits
  65              		.align	1
  66              		.global	microsISR
  67              		.syntax unified
  68              		.thumb
  69              		.thumb_func
  71              	microsISR:
  72              	.LFB222:
  22:Core/Src/driver/system.c **** 
  23:Core/Src/driver/system.c **** uint32_t microsISR(void) {
  73              		.loc 1 23 26 is_stmt 1 view -0
  74              		.cfi_startproc
  75              		@ args = 0, pretend = 0, frame = 0
  76              		@ frame_needed = 0, uses_anonymous_args = 0
  77 0000 10B5     		push	{r4, lr}
  78              	.LCFI1:
  79              		.cfi_def_cfa_offset 8
  80              		.cfi_offset 4, -8
  81              		.cfi_offset 14, -4
  24:Core/Src/driver/system.c ****   register uint32_t ms,  cycle_cnt;
  82              		.loc 1 24 3 view .LVU9
  25:Core/Src/driver/system.c ****   cycle_cnt = SysTick->VAL;
  83              		.loc 1 25 3 view .LVU10
  84              		.loc 1 25 13 is_stmt 0 view .LVU11
  85 0002 4FF0E023 		mov	r3, #-536813568
  86 0006 9C69     		ldr	r4, [r3, #24]
  87              	.LVL1:
  26:Core/Src/driver/system.c ****   // cycle_cnt = TIM11->CNT; 
  27:Core/Src/driver/system.c ****   // if (SysTick->CTRL & SysTick_CTRL_COUNTFLAG_Msk) {
  28:Core/Src/driver/system.c ****     // Update pending.
  29:Core/Src/driver/system.c ****     // Record it for multiple calls within the same rollover period
  30:Core/Src/driver/system.c ****     // (Will be cleared when serviced).
ARM GAS  /var/folders/mn/k5wp23016n9dfxcgh9w5nftw0000gn/T//ccovtHy2.s 			page 3


  31:Core/Src/driver/system.c ****     // Note that multiple rollovers are not considered.
  32:Core/Src/driver/system.c **** 
  33:Core/Src/driver/system.c ****     // sysTickPending = 1;
  34:Core/Src/driver/system.c **** 
  35:Core/Src/driver/system.c ****     // Read VAL again to ensure the value is read after the rollover.
  36:Core/Src/driver/system.c **** 
  37:Core/Src/driver/system.c ****     // cycle_cnt = SysTick->VAL;
  38:Core/Src/driver/system.c ****   // }
  39:Core/Src/driver/system.c ****   // ms = sysTickUptime;
  40:Core/Src/driver/system.c ****   ms = xTaskGetTickCountFromISR() * portTICK_RATE_MS; 
  88              		.loc 1 40 3 is_stmt 1 view .LVU12
  89              		.loc 1 40 8 is_stmt 0 view .LVU13
  90 0008 FFF7FEFF 		bl	xTaskGetTickCountFromISR
  91              	.LVL2:
  41:Core/Src/driver/system.c ****   // ms = HAL_GetTick(); 
  42:Core/Src/driver/system.c ****   // pending = sysTickPending;
  43:Core/Src/driver/system.c ****   return (ms  * 1000) + (usTicks * 1000 - cycle_cnt) / usTicks;
  92              		.loc 1 43 3 is_stmt 1 view .LVU14
  93              		.loc 1 43 15 is_stmt 0 view .LVU15
  94 000c 4FF47A72 		mov	r2, #1000
  95              		.loc 1 43 34 view .LVU16
  96 0010 0549     		ldr	r1, .L7
  97 0012 0B68     		ldr	r3, [r1]
  98 0014 02FB03F3 		mul	r3, r2, r3
  99              		.loc 1 43 41 view .LVU17
 100 0018 1B1B     		subs	r3, r3, r4
 101              		.loc 1 43 54 view .LVU18
 102 001a 0968     		ldr	r1, [r1]
 103 001c B3FBF1F3 		udiv	r3, r3, r1
  44:Core/Src/driver/system.c **** }
 104              		.loc 1 44 1 view .LVU19
 105 0020 02FB0030 		mla	r0, r2, r0, r3
 106              	.LVL3:
 107              		.loc 1 44 1 view .LVU20
 108 0024 10BD     		pop	{r4, pc}
 109              	.LVL4:
 110              	.L8:
 111              		.loc 1 44 1 view .LVU21
 112 0026 00BF     		.align	2
 113              	.L7:
 114 0028 00000000 		.word	usTicks
 115              		.cfi_endproc
 116              	.LFE222:
 118              		.section	.bss.usTicks,"aw",%nobits
 119              		.align	2
 122              	usTicks:
 123 0000 00000000 		.space	4
 124              		.section	.bss.cpuClockFrequency,"aw",%nobits
 125              		.align	2
 128              	cpuClockFrequency:
 129 0000 00000000 		.space	4
 130              		.global	sysTickValStamp
 131              		.section	.bss.sysTickValStamp,"aw",%nobits
 132              		.align	2
 135              	sysTickValStamp:
 136 0000 00000000 		.space	4
 137              		.global	sysTickUptime
ARM GAS  /var/folders/mn/k5wp23016n9dfxcgh9w5nftw0000gn/T//ccovtHy2.s 			page 4


 138              		.section	.bss.sysTickUptime,"aw",%nobits
 139              		.align	2
 142              	sysTickUptime:
 143 0000 00000000 		.space	4
 144              		.global	sysTickPending
 145              		.section	.bss.sysTickPending,"aw",%nobits
 146              		.align	2
 149              	sysTickPending:
 150 0000 00000000 		.space	4
 151              		.text
 152              	.Letext0:
 153              		.file 2 "/Users/echo/Development/arm-gnu-toolchain/arm64-arm-none-eabi12/arm-none-eabi/include/mac
 154              		.file 3 "/Users/echo/Development/arm-gnu-toolchain/arm64-arm-none-eabi12/arm-none-eabi/include/sys
 155              		.file 4 "Drivers/CMSIS/Include/core_cm4.h"
 156              		.file 5 "Middlewares/FreeRTOS/portable/GCC/ARM_CM4F/portmacro.h"
 157              		.file 6 "Middlewares/FreeRTOS/include/task.h"
 158              		.file 7 "Drivers/STM32F4xx_HAL_Driver/Inc/stm32f4xx_hal_rcc.h"
ARM GAS  /var/folders/mn/k5wp23016n9dfxcgh9w5nftw0000gn/T//ccovtHy2.s 			page 5

